target datalayout = "e-m:e-p270:32:32-p271:32:32-p272:64:64-i64:64-i128:128-f80:128-n8:16:32:64-S128"
target triple = "x86_64-pc-linux-gnu"

%struct.Vec_Wrd_t_ = type { i32, i32, ptr }
%struct.Supp_Man_t_ = type { i32, i32, i32, i32, ptr, ptr, ptr, ptr, ptr, ptr, [2 x ptr], [2 x ptr], [2 x ptr], ptr, ptr, ptr, ptr, ptr, ptr, ptr, ptr, ptr, ptr, ptr, ptr, ptr }

; Function Attrs: inlinehint nounwind uwtable
define internal ptr @Vec_WrdAlloc(i32 noundef %0) #2 {
  %2 = alloca i32, align 4
  %3 = alloca ptr, align 8
  store i32 %0, ptr %2, align 4, !tbaa !8
  call void @llvm.lifetime.start.p0(i64 8, ptr %3) #15
  %4 = call noalias ptr @malloc(i64 noundef 16) #18
  store ptr %4, ptr %3, align 8, !tbaa !3
  %5 = load i32, ptr %2, align 4, !tbaa !8
  %6 = icmp sgt i32 %5, 0
  br i1 %6, label %7, label %11

7:                                                ; preds = %1
  %8 = load i32, ptr %2, align 4, !tbaa !8
  %9 = icmp slt i32 %8, 16
  br i1 %9, label %10, label %11

10:                                               ; preds = %7
  store i32 16, ptr %2, align 4, !tbaa !8
  br label %11

11:                                               ; preds = %10, %7, %1
  %12 = load ptr, ptr %3, align 8, !tbaa !3
  %13 = getelementptr inbounds nuw %struct.Vec_Wrd_t_, ptr %12, i32 0, i32 1
  store i32 0, ptr %13, align 4, !tbaa !14
  %14 = load i32, ptr %2, align 4, !tbaa !8
  %15 = load ptr, ptr %3, align 8, !tbaa !3
  %16 = getelementptr inbounds nuw %struct.Vec_Wrd_t_, ptr %15, i32 0, i32 0
  store i32 %14, ptr %16, align 8, !tbaa !87
  %17 = load ptr, ptr %3, align 8, !tbaa !3
  %18 = getelementptr inbounds nuw %struct.Vec_Wrd_t_, ptr %17, i32 0, i32 0
  %19 = load i32, ptr %18, align 8, !tbaa !87
  %20 = icmp ne i32 %19, 0
  br i1 %20, label %21, label %28

21:                                               ; preds = %11
  %22 = load ptr, ptr %3, align 8, !tbaa !3
  %23 = getelementptr inbounds nuw %struct.Vec_Wrd_t_, ptr %22, i32 0, i32 0
  %24 = load i32, ptr %23, align 8, !tbaa !87
  %25 = sext i32 %24 to i64
  %26 = mul i64 8, %25
  %27 = call noalias ptr @malloc(i64 noundef %26) #18
  br label %29

28:                                               ; preds = %11
  br label %29

29:                                               ; preds = %28, %21
  %30 = phi ptr [ %27, %21 ], [ null, %28 ]
  %31 = load ptr, ptr %3, align 8, !tbaa !3
  %32 = getelementptr inbounds nuw %struct.Vec_Wrd_t_, ptr %31, i32 0, i32 2
  store ptr %30, ptr %32, align 8, !tbaa !16
  %33 = load ptr, ptr %3, align 8, !tbaa !3
  call void @llvm.lifetime.end.p0(i64 8, ptr %3) #15
  ret ptr %33
}

; Function Attrs: inlinehint nounwind uwtable
define internal void @Abc_TtCopy(ptr noundef %0, ptr noundef %1, i32 noundef %2, i32 noundef %3) #2 {
  %5 = alloca ptr, align 8
  %6 = alloca ptr, align 8
  %7 = alloca i32, align 4
  %8 = alloca i32, align 4
  %9 = alloca i32, align 4
  store ptr %0, ptr %5, align 8, !tbaa !10
  store ptr %1, ptr %6, align 8, !tbaa !10
  store i32 %2, ptr %7, align 4, !tbaa !8
  store i32 %3, ptr %8, align 4, !tbaa !8
  call void @llvm.lifetime.start.p0(i64 4, ptr %9) #15
  %10 = load i32, ptr %8, align 4, !tbaa !8
  %11 = icmp ne i32 %10, 0
  br i1 %11, label %12, label %32

12:                                               ; preds = %4
  store i32 0, ptr %9, align 4, !tbaa !8
  br label %13

13:                                               ; preds = %28, %12
  %14 = load i32, ptr %9, align 4, !tbaa !8
  %15 = load i32, ptr %7, align 4, !tbaa !8
  %16 = icmp slt i32 %14, %15
  br i1 %16, label %17, label %31

17:                                               ; preds = %13
  %18 = load ptr, ptr %6, align 8, !tbaa !10
  %19 = load i32, ptr %9, align 4, !tbaa !8
  %20 = sext i32 %19 to i64
  %21 = getelementptr inbounds i64, ptr %18, i64 %20
  %22 = load i64, ptr %21, align 8, !tbaa !17
  %23 = xor i64 %22, -1
  %24 = load ptr, ptr %5, align 8, !tbaa !10
  %25 = load i32, ptr %9, align 4, !tbaa !8
  %26 = sext i32 %25 to i64
  %27 = getelementptr inbounds i64, ptr %24, i64 %26
  store i64 %23, ptr %27, align 8, !tbaa !17
  br label %28

28:                                               ; preds = %17
  %29 = load i32, ptr %9, align 4, !tbaa !8
  %30 = add nsw i32 %29, 1
  store i32 %30, ptr %9, align 4, !tbaa !8
  br label %13, !llvm.loop !20

31:                                               ; preds = %13
  br label %51

32:                                               ; preds = %4
  store i32 0, ptr %9, align 4, !tbaa !8
  br label %33

33:                                               ; preds = %47, %32
  %34 = load i32, ptr %9, align 4, !tbaa !8
  %35 = load i32, ptr %7, align 4, !tbaa !8
  %36 = icmp slt i32 %34, %35
  br i1 %36, label %37, label %50

37:                                               ; preds = %33
  %38 = load ptr, ptr %6, align 8, !tbaa !10
  %39 = load i32, ptr %9, align 4, !tbaa !8
  %40 = sext i32 %39 to i64
  %41 = getelementptr inbounds i64, ptr %38, i64 %40
  %42 = load i64, ptr %41, align 8, !tbaa !17
  %43 = load ptr, ptr %5, align 8, !tbaa !10
  %44 = load i32, ptr %9, align 4, !tbaa !8
  %45 = sext i32 %44 to i64
  %46 = getelementptr inbounds i64, ptr %43, i64 %45
  store i64 %42, ptr %46, align 8, !tbaa !17
  br label %47

47:                                               ; preds = %37
  %48 = load i32, ptr %9, align 4, !tbaa !8
  %49 = add nsw i32 %48, 1
  store i32 %49, ptr %9, align 4, !tbaa !8
  br label %33, !llvm.loop !21

50:                                               ; preds = %33
  br label %51

51:                                               ; preds = %50, %31
  call void @llvm.lifetime.end.p0(i64 4, ptr %9) #15
  ret void
}

; Function Attrs: inlinehint nounwind uwtable
define internal ptr @Vec_WrdArray(ptr noundef %0) #2 {
  %2 = alloca ptr, align 8
  store ptr %0, ptr %2, align 8, !tbaa !3
  %3 = load ptr, ptr %2, align 8, !tbaa !3
  %4 = getelementptr inbounds nuw %struct.Vec_Wrd_t_, ptr %3, i32 0, i32 2
  %5 = load ptr, ptr %4, align 8, !tbaa !16
  ret ptr %5
}

; Function Attrs: inlinehint nounwind uwtable
define internal ptr @Vec_WrdStart(i32 noundef %0) #2 {
  %2 = alloca i32, align 4
  %3 = alloca ptr, align 8
  store i32 %0, ptr %2, align 4, !tbaa !8
  call void @llvm.lifetime.start.p0(i64 8, ptr %3) #15
  %4 = load i32, ptr %2, align 4, !tbaa !8
  %5 = call ptr @Vec_WrdAlloc(i32 noundef %4)
  store ptr %5, ptr %3, align 8, !tbaa !3
  %6 = load i32, ptr %2, align 4, !tbaa !8
  %7 = load ptr, ptr %3, align 8, !tbaa !3
  %8 = getelementptr inbounds nuw %struct.Vec_Wrd_t_, ptr %7, i32 0, i32 1
  store i32 %6, ptr %8, align 4, !tbaa !14
  %9 = load ptr, ptr %3, align 8, !tbaa !3
  %10 = getelementptr inbounds nuw %struct.Vec_Wrd_t_, ptr %9, i32 0, i32 2
  %11 = load ptr, ptr %10, align 8, !tbaa !16
  %12 = load i32, ptr %2, align 4, !tbaa !8
  %13 = sext i32 %12 to i64
  %14 = mul i64 8, %13
  call void @llvm.memset.p0.i64(ptr align 8 %11, i8 0, i64 %14, i1 false)
  %15 = load ptr, ptr %3, align 8, !tbaa !3
  call void @llvm.lifetime.end.p0(i64 8, ptr %3) #15
  ret ptr %15
}

; Function Attrs: inlinehint nounwind uwtable
define internal i32 @Abc_Bit6WordNum(i32 noundef %0) #2 {
  %2 = alloca i32, align 4
  store i32 %0, ptr %2, align 4, !tbaa !8
  %3 = load i32, ptr %2, align 4, !tbaa !8
  %4 = ashr i32 %3, 6
  %5 = load i32, ptr %2, align 4, !tbaa !8
  %6 = and i32 %5, 63
  %7 = icmp sgt i32 %6, 0
  %8 = zext i1 %7 to i32
  %9 = add nsw i32 %4, %8
  ret i32 %9
}

; Function Attrs: inlinehint nounwind uwtable
define internal i32 @Vec_WrdSize(ptr noundef %0) #2 {
  %2 = alloca ptr, align 8
  store ptr %0, ptr %2, align 8, !tbaa !3
  %3 = load ptr, ptr %2, align 8, !tbaa !3
  %4 = getelementptr inbounds nuw %struct.Vec_Wrd_t_, ptr %3, i32 0, i32 1
  %5 = load i32, ptr %4, align 4, !tbaa !14
  ret i32 %5
}

; Function Attrs: nounwind uwtable
define i32 @Supp_DeriveLines2(ptr noundef %0) #0 {
  %2 = alloca ptr, align 8
  %3 = alloca i32, align 4
  %4 = alloca i32, align 4
  store ptr %0, ptr %2, align 8, !tbaa !24
  call void @llvm.lifetime.start.p0(i64 4, ptr %3) #15
  call void @llvm.lifetime.start.p0(i64 4, ptr %4) #15
  %5 = load ptr, ptr %2, align 8, !tbaa !24
  %6 = getelementptr inbounds nuw %struct.Supp_Man_t_, ptr %5, i32 0, i32 7
  %7 = load ptr, ptr %6, align 8, !tbaa !63
  %8 = call i32 @Vec_WrdSize(ptr noundef %7)
  %9 = load ptr, ptr %2, align 8, !tbaa !24
  %10 = getelementptr inbounds nuw %struct.Supp_Man_t_, ptr %9, i32 0, i32 2
  %11 = load i32, ptr %10, align 8, !tbaa !37
  %12 = sdiv i32 %8, %11
  %13 = call i32 @Abc_Bit6WordNum(i32 noundef %12)
  store i32 %13, ptr %4, align 4, !tbaa !8
  store i32 0, ptr %3, align 4, !tbaa !8
  br label %14

14:                                               ; preds = %77, %1
  %15 = load i32, ptr %3, align 4, !tbaa !8
  %16 = icmp slt i32 %15, 2
  br i1 %16, label %17, label %80

17:                                               ; preds = %14
  %18 = load ptr, ptr %2, align 8, !tbaa !24
  %19 = getelementptr inbounds nuw %struct.Supp_Man_t_, ptr %18, i32 0, i32 2
  %20 = load i32, ptr %19, align 8, !tbaa !37
  %21 = mul nsw i32 64, %20
  %22 = load i32, ptr %4, align 4, !tbaa !8
  %23 = mul nsw i32 %21, %22
  %24 = call ptr @Vec_WrdStart(i32 noundef %23)
  %25 = load ptr, ptr %2, align 8, !tbaa !24
  %26 = getelementptr inbounds nuw %struct.Supp_Man_t_, ptr %25, i32 0, i32 10
  %27 = load i32, ptr %3, align 4, !tbaa !8
  %28 = sext i32 %27 to i64
  %29 = getelementptr inbounds [2 x ptr], ptr %26, i64 0, i64 %28
  store ptr %24, ptr %29, align 8, !tbaa !3
  %30 = load ptr, ptr %2, align 8, !tbaa !24
  %31 = getelementptr inbounds nuw %struct.Supp_Man_t_, ptr %30, i32 0, i32 2
  %32 = load i32, ptr %31, align 8, !tbaa !37
  %33 = mul nsw i32 64, %32
  %34 = load i32, ptr %4, align 4, !tbaa !8
  %35 = mul nsw i32 %33, %34
  %36 = call ptr @Vec_WrdStart(i32 noundef %35)
  %37 = load ptr, ptr %2, align 8, !tbaa !24
  %38 = getelementptr inbounds nuw %struct.Supp_Man_t_, ptr %37, i32 0, i32 12
  %39 = load i32, ptr %3, align 4, !tbaa !8
  %40 = sext i32 %39 to i64
  %41 = getelementptr inbounds [2 x ptr], ptr %38, i64 0, i64 %40
  store ptr %36, ptr %41, align 8, !tbaa !3
  %42 = load ptr, ptr %2, align 8, !tbaa !24
  %43 = getelementptr inbounds nuw %struct.Supp_Man_t_, ptr %42, i32 0, i32 10
  %44 = load i32, ptr %3, align 4, !tbaa !8
  %45 = sext i32 %44 to i64
  %46 = getelementptr inbounds [2 x ptr], ptr %43, i64 0, i64 %45
  %47 = load ptr, ptr %46, align 8, !tbaa !3
  %48 = call ptr @Vec_WrdArray(ptr noundef %47)
  %49 = load ptr, ptr %2, align 8, !tbaa !24
  %50 = getelementptr inbounds nuw %struct.Supp_Man_t_, ptr %49, i32 0, i32 7
  %51 = load ptr, ptr %50, align 8, !tbaa !63
  %52 = call ptr @Vec_WrdArray(ptr noundef %51)
  %53 = load ptr, ptr %2, align 8, !tbaa !24
  %54 = getelementptr inbounds nuw %struct.Supp_Man_t_, ptr %53, i32 0, i32 7
  %55 = load ptr, ptr %54, align 8, !tbaa !63
  %56 = call i32 @Vec_WrdSize(ptr noundef %55)
  %57 = load i32, ptr %3, align 4, !tbaa !8
  %58 = icmp ne i32 %57, 0
  %59 = xor i1 %58, true
  %60 = zext i1 %59 to i32
  call void @Abc_TtCopy(ptr noundef %48, ptr noundef %52, i32 noundef %56, i32 noundef %60)
  %61 = load ptr, ptr %2, align 8, !tbaa !24
  %62 = getelementptr inbounds nuw %struct.Supp_Man_t_, ptr %61, i32 0, i32 10
  %63 = load i32, ptr %3, align 4, !tbaa !8
  %64 = sext i32 %63 to i64
  %65 = getelementptr inbounds [2 x ptr], ptr %62, i64 0, i64 %64
  %66 = load ptr, ptr %65, align 8, !tbaa !3
  %67 = load ptr, ptr %2, align 8, !tbaa !24
  %68 = getelementptr inbounds nuw %struct.Supp_Man_t_, ptr %67, i32 0, i32 2
  %69 = load i32, ptr %68, align 8, !tbaa !37
  %70 = load ptr, ptr %2, align 8, !tbaa !24
  %71 = getelementptr inbounds nuw %struct.Supp_Man_t_, ptr %70, i32 0, i32 12
  %72 = load i32, ptr %3, align 4, !tbaa !8
  %73 = sext i32 %72 to i64
  %74 = getelementptr inbounds [2 x ptr], ptr %71, i64 0, i64 %73
  %75 = load ptr, ptr %74, align 8, !tbaa !3
  %76 = load i32, ptr %4, align 4, !tbaa !8
  call void @Extra_BitMatrixTransposeP(ptr noundef %66, i32 noundef %69, ptr noundef %75, i32 noundef %76)
  br label %77

77:                                               ; preds = %17
  %78 = load i32, ptr %3, align 4, !tbaa !8
  %79 = add nsw i32 %78, 1
  store i32 %79, ptr %3, align 4, !tbaa !8
  br label %14, !llvm.loop !91

80:                                               ; preds = %14
  %81 = load i32, ptr %4, align 4, !tbaa !8
  call void @llvm.lifetime.end.p0(i64 4, ptr %4) #15
  call void @llvm.lifetime.end.p0(i64 4, ptr %3) #15
  ret i32 %81
}