; Function Attrs: nounwind uwtable
define range(i32 -33554432, 33554433) i32 @Supp_DeriveLines2(ptr noundef captures(none) %0) local_unnamed_addr #3 {
  %2 = getelementptr inbounds nuw i8, ptr %0, i64 40
  %3 = load ptr, ptr %2, align 8, !tbaa !61
  %4 = getelementptr i8, ptr %3, i64 4
  %.val23 = load i32, ptr %4, align 4, !tbaa !3
  %5 = getelementptr inbounds nuw i8, ptr %0, i64 8
  %6 = load i32, ptr %5, align 8, !tbaa !39
  %7 = sdiv i32 %.val23, %6
  %8 = ashr i32 %7, 6
  %9 = and i32 %7, 63
  %10 = icmp ne i32 %9, 0
  %11 = zext i1 %10 to i32
  %12 = add nsw i32 %8, %11
  %13 = getelementptr inbounds nuw i8, ptr %0, i64 64
  %14 = getelementptr inbounds nuw i8, ptr %0, i64 96
  br label %15

15:                                               ; preds = %1, %Abc_TtCopy.exit
  %.not.i = phi i1 [ false, %1 ], [ true, %Abc_TtCopy.exit ]
  %16 = phi i1 [ true, %1 ], [ false, %Abc_TtCopy.exit ]
  %indvars.iv = phi i64 [ 0, %1 ], [ 1, %Abc_TtCopy.exit ]
  %17 = load i32, ptr %5, align 8, !tbaa !39
  %18 = shl nsw i32 %17, 6
  %19 = mul nsw i32 %18, %12
  %20 = tail call noalias dereferenceable_or_null(16) ptr @malloc(i64 noundef 16) #31
  store i32 %19, ptr %20, align 8, !tbaa !37
  %.not.i.i = icmp eq i32 %19, 0
  br i1 %.not.i.i, label %Vec_WrdStart.exit, label %21

21:                                               ; preds = %15
  %22 = sext i32 %19 to i64
  %23 = shl nsw i64 %22, 3
  %24 = tail call noalias ptr @malloc(i64 noundef %23) #31
  br label %Vec_WrdStart.exit

Vec_WrdStart.exit:                                ; preds = %15, %21
  %.pre-phi35 = phi i64 [ %23, %21 ], [ 0, %15 ]
  %25 = phi ptr [ %24, %21 ], [ null, %15 ]
  %26 = getelementptr inbounds nuw i8, ptr %20, i64 4
  %27 = getelementptr inbounds nuw i8, ptr %20, i64 8
  store ptr %25, ptr %27, align 8, !tbaa !10
  store i32 %19, ptr %26, align 4, !tbaa !3
  tail call void @llvm.memset.p0.i64(ptr align 8 %25, i8 0, i64 %.pre-phi35, i1 false)
  %28 = getelementptr inbounds nuw [2 x ptr], ptr %13, i64 0, i64 %indvars.iv
  store ptr %20, ptr %28, align 8, !tbaa !59
  %29 = tail call noalias dereferenceable_or_null(16) ptr @malloc(i64 noundef 16) #31
  store i32 %19, ptr %29, align 8, !tbaa !37
  br i1 %.not.i.i, label %Vec_WrdStart.exit29, label %30

30:                                               ; preds = %Vec_WrdStart.exit
  %31 = tail call noalias ptr @malloc(i64 noundef %.pre-phi35) #31
  br label %Vec_WrdStart.exit29

Vec_WrdStart.exit29:                              ; preds = %Vec_WrdStart.exit, %30
  %32 = phi ptr [ %31, %30 ], [ null, %Vec_WrdStart.exit ]
  %33 = getelementptr inbounds nuw i8, ptr %29, i64 4
  %34 = getelementptr inbounds nuw i8, ptr %29, i64 8
  store ptr %32, ptr %34, align 8, !tbaa !10
  store i32 %19, ptr %33, align 4, !tbaa !3
  tail call void @llvm.memset.p0.i64(ptr align 8 %32, i8 0, i64 %.pre-phi35, i1 false)
  %35 = getelementptr inbounds nuw [2 x ptr], ptr %14, i64 0, i64 %indvars.iv
  store ptr %29, ptr %35, align 8, !tbaa !59
  %36 = load ptr, ptr %2, align 8, !tbaa !61
  %37 = getelementptr i8, ptr %36, i64 8
  %.val25 = load ptr, ptr %37, align 8, !tbaa !10
  %38 = getelementptr i8, ptr %36, i64 4
  %.val = load i32, ptr %38, align 4, !tbaa !3
  %39 = icmp sgt i32 %.val, 0
  br i1 %.not.i, label %.preheader.i, label %.preheader14.i

.preheader14.i:                                   ; preds = %Vec_WrdStart.exit29
  br i1 %39, label %.lr.ph.preheader.i, label %Abc_TtCopy.exit

.lr.ph.preheader.i:                               ; preds = %.preheader14.i
  %wide.trip.count.i = zext nneg i32 %.val to i64
  br label %.lr.ph.i

.preheader.i:                                     ; preds = %Vec_WrdStart.exit29
  br i1 %39, label %.lr.ph18.preheader.i, label %Abc_TtCopy.exit.thread

Abc_TtCopy.exit.thread:                           ; preds = %.preheader.i
  tail call void @Extra_BitMatrixTransposeP(ptr noundef nonnull %20, i32 noundef %17, ptr noundef nonnull %29, i32 noundef %12) #32
  br label %.loopexit

.lr.ph18.preheader.i:                             ; preds = %.preheader.i
  %wide.trip.count24.i = zext nneg i32 %.val to i64
  br label %.lr.ph18.i

.lr.ph.i:                                         ; preds = %.lr.ph.i, %.lr.ph.preheader.i
  %indvars.iv.i = phi i64 [ 0, %.lr.ph.preheader.i ], [ %indvars.iv.next.i, %.lr.ph.i ]
  %40 = getelementptr inbounds nuw i64, ptr %.val25, i64 %indvars.iv.i
  %41 = load i64, ptr %40, align 8, !tbaa !11
  %42 = xor i64 %41, -1
  %43 = getelementptr inbounds nuw i64, ptr %25, i64 %indvars.iv.i
  store i64 %42, ptr %43, align 8, !tbaa !11
  %indvars.iv.next.i = add nuw nsw i64 %indvars.iv.i, 1
  %exitcond.not.i = icmp eq i64 %indvars.iv.next.i, %wide.trip.count.i
  br i1 %exitcond.not.i, label %Abc_TtCopy.exit, label %.lr.ph.i, !llvm.loop !66

.lr.ph18.i:                                       ; preds = %.lr.ph18.i, %.lr.ph18.preheader.i
  %indvars.iv21.i = phi i64 [ 0, %.lr.ph18.preheader.i ], [ %indvars.iv.next22.i, %.lr.ph18.i ]
  %44 = getelementptr inbounds nuw i64, ptr %.val25, i64 %indvars.iv21.i
  %45 = load i64, ptr %44, align 8, !tbaa !11
  %46 = getelementptr inbounds nuw i64, ptr %25, i64 %indvars.iv21.i
  store i64 %45, ptr %46, align 8, !tbaa !11
  %indvars.iv.next22.i = add nuw nsw i64 %indvars.iv21.i, 1
  %exitcond25.not.i = icmp eq i64 %indvars.iv.next22.i, %wide.trip.count24.i
  br i1 %exitcond25.not.i, label %Abc_TtCopy.exit, label %.lr.ph18.i, !llvm.loop !13

Abc_TtCopy.exit:                                  ; preds = %.lr.ph.i, %.lr.ph18.i, %.preheader14.i
  tail call void @Extra_BitMatrixTransposeP(ptr noundef nonnull %20, i32 noundef %17, ptr noundef nonnull %29, i32 noundef %12) #32
  br i1 %16, label %15, label %.loopexit, !llvm.loop !88

.loopexit:                                        ; preds = %Abc_TtCopy.exit, %Abc_TtCopy.exit.thread
  ret i32 %12
}